(lp0
(lp1
S'pc'
p2
a(I615
I45
tp3
aS'switch'
p4
a(I508
I298
tp5
a(lp6
S'E-mailing'
p7
aaNaa(lp8
S'pc'
p9
a(I530
I50
tp10
aS'switch'
p11
a(I508
I298
tp12
a(lp13
S'Internet browsing'
p14
aaNaa(lp15
S'switch'
p16
a(I508
I298
tp17
aS'server'
p18
a(I706
I276
tp19
aNa(lp20
S'Print server'
p21
aS'File server'
p22
aS'E-mail server'
p23
aS'Multimedia server'
p24
aS'Web cache'
p25
aaa(lp26
S'switch'
p27
a(I508
I298
tp28
aS'printer'
p29
a(I399
I401
tp30
aNaNaa(lp31
S'switch'
p32
a(I508
I298
tp33
aS'server'
p34
a(I706
I276
tp35
aNag20
aa(lp36
S'switch'
p37
a(I508
I298
tp38
aS'server'
p39
a(I706
I276
tp40
aNag20
aa(lp41
S'switch'
p42
a(I508
I298
tp43
aS'server'
p44
a(I706
I276
tp45
aNag20
aa(lp46
S'switch'
p47
a(I508
I298
tp48
aS'server'
p49
a(I706
I276
tp50
aNag20
aa(lp51
S'switch'
p52
a(I508
I298
tp53
aS'router'
p54
a(I367
I255
tp55
aNaNaa(lp56
S'pc'
p57
a(I449
I49
tp58
aS'switch'
p59
a(I508
I298
tp60
a(lp61
S'Word processing'
p62
aS'Multimedia'
p63
aaNaa.