(lp0
(lp1
S'switch'
p2
a(I412
I160
tp3
aS'switch'
p4
a(I416
I259
tp5
aNaNaa(lp6
S'switch'
p7
a(I416
I259
tp8
aS'printer'
p9
a(I336
I364
tp10
aNaNaa(lp11
S'switch'
p12
a(I416
I259
tp13
aS'router'
p14
a(I282
I229
tp15
aNaNaa(lp16
S'switch'
p17
a(I416
I259
tp18
aS'server'
p19
a(I614
I339
tp20
aNa(lp21
S'Print server'
p22
aaa(lp23
S'pc'
p24
a(I502
I55
tp25
aS'switch'
p26
a(I412
I160
tp27
a(lp28
aNaa(lp29
S'pc'
p30
a(I279
I49
tp31
aS'switch'
p32
a(I412
I160
tp33
a(lp34
aNaa(lp35
S'pc'
p36
a(I368
I48
tp37
aS'switch'
p38
a(I412
I160
tp39
a(lp40
aNaa.