(lp0
(lp1
S'pc'
p2
a(I212
I23
tp3
aS'hub'
p4
a(I231
I162
tp5
a(lp6
aNaa(lp7
S'hub'
p8
a(I231
I162
tp9
aS'server'
p10
a(I183
I277
tp11
aNa(lp12
S'Print server'
p13
aaa(lp14
S'hub'
p15
a(I231
I162
tp16
aS'printer'
p17
a(I512
I172
tp18
aNaNaa.